; Function Attrs: mustprogress uwtable
define hidden void @_ZN12mpff_manager7set_maxER4mpff(ptr noundef nonnull align 8 dereferenceable(89) %0, ptr noundef nonnull align 4 captures(none) dereferenceable(8) initializes((4, 8)) %1) local_unnamed_addr #3 align 2 {
  %3 = load i32, ptr %1, align 4
  %4 = icmp ult i32 %3, 2
  br i1 %4, label %5, label %_ZN12mpff_manager18allocate_if_neededER4mpff.exit

5:                                                ; preds = %2
  %6 = getelementptr inbounds nuw i8, ptr %0, i64 24
  %7 = getelementptr inbounds nuw i8, ptr %0, i64 32
  %8 = load ptr, ptr %7, align 8, !tbaa !3
  %9 = icmp eq ptr %8, null
  br i1 %9, label %_ZNK6vectorIjLb0EjE5emptyEv.exit.thread.i.i.i, label %_ZNK6vectorIjLb0EjE5emptyEv.exit.i.i.i

_ZNK6vectorIjLb0EjE5emptyEv.exit.i.i.i:           ; preds = %5
  %10 = getelementptr inbounds i8, ptr %8, i64 -4
  %11 = load i32, ptr %10, align 4, !tbaa !21
  %12 = icmp eq i32 %11, 0
  br i1 %12, label %_ZNK6vectorIjLb0EjE5emptyEv.exit.thread.i.i.i, label %_ZN6vectorIjLb0EjE4backEv.exit.i.i.i

_ZNK6vectorIjLb0EjE5emptyEv.exit.thread.i.i.i:    ; preds = %_ZNK6vectorIjLb0EjE5emptyEv.exit.i.i.i, %5
  %13 = load i32, ptr %6, align 8, !tbaa !9
  %14 = add i32 %13, 1
  store i32 %14, ptr %6, align 8, !tbaa !9
  br label %_ZN12mpff_manager8allocateER4mpff.exit.i

_ZN6vectorIjLb0EjE4backEv.exit.i.i.i:             ; preds = %_ZNK6vectorIjLb0EjE5emptyEv.exit.i.i.i
  %15 = add i32 %11, -1
  %16 = zext i32 %15 to i64
  %17 = getelementptr inbounds nuw i32, ptr %8, i64 %16
  %18 = load i32, ptr %17, align 4, !tbaa !21
  store i32 %15, ptr %10, align 4, !tbaa !21
  br label %_ZN12mpff_manager8allocateER4mpff.exit.i

_ZN12mpff_manager8allocateER4mpff.exit.i:         ; preds = %_ZN6vectorIjLb0EjE4backEv.exit.i.i.i, %_ZNK6vectorIjLb0EjE5emptyEv.exit.thread.i.i.i
  %.0.i.i.i = phi i32 [ %13, %_ZNK6vectorIjLb0EjE5emptyEv.exit.thread.i.i.i ], [ %18, %_ZN6vectorIjLb0EjE4backEv.exit.i.i.i ]
  tail call void @_ZN12mpff_manager15ensure_capacityEj(ptr noundef nonnull align 8 dereferenceable(89) %0, i32 noundef %.0.i.i.i)
  %19 = load i32, ptr %1, align 4
  %20 = shl i32 %.0.i.i.i, 1
  %21 = and i32 %19, 1
  %22 = or disjoint i32 %21, %20
  br label %_ZN12mpff_manager18allocate_if_neededER4mpff.exit

_ZN12mpff_manager18allocate_if_neededER4mpff.exit: ; preds = %2, %_ZN12mpff_manager8allocateER4mpff.exit.i
  %23 = phi i32 [ %3, %2 ], [ %22, %_ZN12mpff_manager8allocateER4mpff.exit.i ]
  %24 = and i32 %23, -2
  store i32 %24, ptr %1, align 4
  %25 = getelementptr inbounds nuw i8, ptr %1, i64 4
  store i32 2147483647, ptr %25, align 4, !tbaa !35
  %26 = getelementptr inbounds nuw i8, ptr %0, i64 8
  %27 = load ptr, ptr %26, align 8, !tbaa !3
  %28 = lshr i32 %23, 1
  %29 = load i32, ptr %0, align 8, !tbaa !13
  %30 = mul i32 %29, %28
  %31 = zext i32 %30 to i64
  %32 = getelementptr inbounds nuw i32, ptr %27, i64 %31
  %.not.i = icmp eq i32 %29, 0
  br i1 %.not.i, label %_ZN12mpff_manager19set_max_significandER4mpff.exit, label %.lr.ph.i

.lr.ph.i:                                         ; preds = %_ZN12mpff_manager18allocate_if_neededER4mpff.exit, %.lr.ph.i
  %indvars.iv.i = phi i64 [ %indvars.iv.next.i, %.lr.ph.i ], [ 0, %_ZN12mpff_manager18allocate_if_neededER4mpff.exit ]
  %33 = getelementptr inbounds nuw i32, ptr %32, i64 %indvars.iv.i
  store i32 -1, ptr %33, align 4, !tbaa !21
  %indvars.iv.next.i = add nuw nsw i64 %indvars.iv.i, 1
  %34 = load i32, ptr %0, align 8, !tbaa !13
  %35 = zext i32 %34 to i64
  %36 = icmp samesign ult i64 %indvars.iv.next.i, %35
  br i1 %36, label %.lr.ph.i, label %_ZN12mpff_manager19set_max_significandER4mpff.exit, !llvm.loop !61

_ZN12mpff_manager19set_max_significandER4mpff.exit: ; preds = %.lr.ph.i, %_ZN12mpff_manager18allocate_if_neededER4mpff.exit
  ret void
}